; Function Attrs: nounwind uwtable
define hidden void @X509_STORE_CTX_cleanup(ptr noundef %0) local_unnamed_addr #0 {
  %2 = getelementptr inbounds nuw i8, ptr %0, i64 144
  %3 = load ptr, ptr %2, align 8, !tbaa !128
  %.not = icmp eq ptr %3, null
  br i1 %.not, label %6, label %4

4:                                                ; preds = %1
  %5 = tail call i32 %3(ptr noundef nonnull %0) #14
  store ptr null, ptr %2, align 8, !tbaa !128
  br label %6

6:                                                ; preds = %4, %1
  %7 = getelementptr inbounds nuw i8, ptr %0, i64 40
  %8 = load ptr, ptr %7, align 8, !tbaa !6
  %.not20 = icmp eq ptr %8, null
  br i1 %.not20, label %15, label %9

9:                                                ; preds = %6
  %10 = getelementptr inbounds nuw i8, ptr %0, i64 224
  %11 = load ptr, ptr %10, align 8, !tbaa !63
  %12 = icmp eq ptr %11, null
  br i1 %12, label %13, label %14

13:                                               ; preds = %9
  tail call void @X509_VERIFY_PARAM_free(ptr noundef nonnull %8) #14
  br label %14

14:                                               ; preds = %13, %9
  store ptr null, ptr %7, align 8, !tbaa !6
  br label %15

15:                                               ; preds = %14, %6
  %16 = getelementptr inbounds nuw i8, ptr %0, i64 168
  %17 = load ptr, ptr %16, align 8, !tbaa !129
  %.not21 = icmp eq ptr %17, null
  br i1 %.not21, label %19, label %18

18:                                               ; preds = %15
  tail call void @X509_policy_tree_free(ptr noundef nonnull %17) #14
  store ptr null, ptr %16, align 8, !tbaa !129
  br label %19

19:                                               ; preds = %18, %15
  %20 = getelementptr inbounds nuw i8, ptr %0, i64 160
  %21 = load ptr, ptr %20, align 8, !tbaa !23
  %.not22 = icmp eq ptr %21, null
  br i1 %.not22, label %23, label %22

22:                                               ; preds = %19
  tail call void @sk_pop_free(ptr noundef nonnull %21, ptr noundef nonnull @X509_free) #14
  store ptr null, ptr %20, align 8, !tbaa !23
  br label %23

23:                                               ; preds = %22, %19
  %24 = getelementptr inbounds nuw i8, ptr %0, i64 232
  tail call void @CRYPTO_free_ex_data(ptr noundef nonnull @g_ex_data_class, ptr noundef nonnull %0, ptr noundef nonnull %24) #14
  store i64 0, ptr %24, align 8
  ret void
}